; Function Attrs: mustprogress nounwind uwtable
define internal fastcc void @_ZL23AddSourceLocationAbbrevRN4llvm13BitCodeAbbrevE(ptr noundef nonnull align 8 dereferenceable(528) %0) unnamed_addr #0 {
  %2 = tail call noundef i64 @_ZNK4llvm15SmallVectorBaseIjE4sizeEv(ptr noundef nonnull align 8 dereferenceable(528) %0) #18
  %3 = add i64 %2, 1
  %4 = tail call noundef i64 @_ZNK4llvm15SmallVectorBaseIjE8capacityEv(ptr noundef nonnull align 8 dereferenceable(528) %0) #18
  %.not.i.i.i.i = icmp ugt i64 %3, %4
  br i1 %.not.i.i.i.i, label %5, label %_ZN4llvm13BitCodeAbbrev3AddERKNS_15BitCodeAbbrevOpE.exit

5:                                                ; preds = %1
  %6 = getelementptr inbounds nuw i8, ptr %0, i64 16
  tail call void @_ZN4llvm15SmallVectorBaseIjE8grow_podEPvmm(ptr noundef nonnull align 8 dereferenceable(528) %0, ptr noundef nonnull %6, i64 noundef %3, i64 noundef 16) #18
  br label %_ZN4llvm13BitCodeAbbrev3AddERKNS_15BitCodeAbbrevOpE.exit

_ZN4llvm13BitCodeAbbrev3AddERKNS_15BitCodeAbbrevOpE.exit: ; preds = %1, %5
  %7 = load ptr, ptr %0, align 8
  %8 = tail call noundef i64 @_ZNK4llvm15SmallVectorBaseIjE4sizeEv(ptr noundef nonnull align 8 dereferenceable(528) %0) #18
  %9 = getelementptr inbounds %"class.llvm::BitCodeAbbrevOp", ptr %7, i64 %8
  store i64 10, ptr %9, align 1
  %.sroa.2.0..sroa_idx.i.i = getelementptr inbounds nuw i8, ptr %9, i64 8
  store i64 2, ptr %.sroa.2.0..sroa_idx.i.i, align 1
  %10 = tail call noundef i64 @_ZNK4llvm15SmallVectorBaseIjE4sizeEv(ptr noundef nonnull align 8 dereferenceable(528) %0) #18
  %11 = add i64 %10, 1
  tail call void @_ZN4llvm15SmallVectorBaseIjE8set_sizeEm(ptr noundef nonnull align 8 dereferenceable(528) %0, i64 noundef %11) #18
  %12 = tail call noundef i64 @_ZNK4llvm15SmallVectorBaseIjE4sizeEv(ptr noundef nonnull align 8 dereferenceable(528) %0) #18
  %13 = add i64 %12, 1
  %14 = tail call noundef i64 @_ZNK4llvm15SmallVectorBaseIjE8capacityEv(ptr noundef nonnull align 8 dereferenceable(528) %0) #18
  %.not.i.i.i.i7 = icmp ugt i64 %13, %14
  br i1 %.not.i.i.i.i7, label %15, label %_ZN4llvm13BitCodeAbbrev3AddERKNS_15BitCodeAbbrevOpE.exit9

15:                                               ; preds = %_ZN4llvm13BitCodeAbbrev3AddERKNS_15BitCodeAbbrevOpE.exit
  %16 = getelementptr inbounds nuw i8, ptr %0, i64 16
  tail call void @_ZN4llvm15SmallVectorBaseIjE8grow_podEPvmm(ptr noundef nonnull align 8 dereferenceable(528) %0, ptr noundef nonnull %16, i64 noundef %13, i64 noundef 16) #18
  br label %_ZN4llvm13BitCodeAbbrev3AddERKNS_15BitCodeAbbrevOpE.exit9

_ZN4llvm13BitCodeAbbrev3AddERKNS_15BitCodeAbbrevOpE.exit9: ; preds = %_ZN4llvm13BitCodeAbbrev3AddERKNS_15BitCodeAbbrevOpE.exit, %15
  %17 = load ptr, ptr %0, align 8
  %18 = tail call noundef i64 @_ZNK4llvm15SmallVectorBaseIjE4sizeEv(ptr noundef nonnull align 8 dereferenceable(528) %0) #18
  %19 = getelementptr inbounds %"class.llvm::BitCodeAbbrevOp", ptr %17, i64 %18
  store i64 32, ptr %19, align 1
  %.sroa.2.0..sroa_idx.i.i8 = getelementptr inbounds nuw i8, ptr %19, i64 8
  store i64 2, ptr %.sroa.2.0..sroa_idx.i.i8, align 1
  %20 = tail call noundef i64 @_ZNK4llvm15SmallVectorBaseIjE4sizeEv(ptr noundef nonnull align 8 dereferenceable(528) %0) #18
  %21 = add i64 %20, 1
  tail call void @_ZN4llvm15SmallVectorBaseIjE8set_sizeEm(ptr noundef nonnull align 8 dereferenceable(528) %0, i64 noundef %21) #18
  %22 = tail call noundef i64 @_ZNK4llvm15SmallVectorBaseIjE4sizeEv(ptr noundef nonnull align 8 dereferenceable(528) %0) #18
  %23 = add i64 %22, 1
  %24 = tail call noundef i64 @_ZNK4llvm15SmallVectorBaseIjE8capacityEv(ptr noundef nonnull align 8 dereferenceable(528) %0) #18
  %.not.i.i.i.i13 = icmp ugt i64 %23, %24
  br i1 %.not.i.i.i.i13, label %25, label %_ZN4llvm13BitCodeAbbrev3AddERKNS_15BitCodeAbbrevOpE.exit15

25:                                               ; preds = %_ZN4llvm13BitCodeAbbrev3AddERKNS_15BitCodeAbbrevOpE.exit9
  %26 = getelementptr inbounds nuw i8, ptr %0, i64 16
  tail call void @_ZN4llvm15SmallVectorBaseIjE8grow_podEPvmm(ptr noundef nonnull align 8 dereferenceable(528) %0, ptr noundef nonnull %26, i64 noundef %23, i64 noundef 16) #18
  br label %_ZN4llvm13BitCodeAbbrev3AddERKNS_15BitCodeAbbrevOpE.exit15

_ZN4llvm13BitCodeAbbrev3AddERKNS_15BitCodeAbbrevOpE.exit15: ; preds = %_ZN4llvm13BitCodeAbbrev3AddERKNS_15BitCodeAbbrevOpE.exit9, %25
  %27 = load ptr, ptr %0, align 8
  %28 = tail call noundef i64 @_ZNK4llvm15SmallVectorBaseIjE4sizeEv(ptr noundef nonnull align 8 dereferenceable(528) %0) #18
  %29 = getelementptr inbounds %"class.llvm::BitCodeAbbrevOp", ptr %27, i64 %28
  store i64 32, ptr %29, align 1
  %.sroa.2.0..sroa_idx.i.i14 = getelementptr inbounds nuw i8, ptr %29, i64 8
  store i64 2, ptr %.sroa.2.0..sroa_idx.i.i14, align 1
  %30 = tail call noundef i64 @_ZNK4llvm15SmallVectorBaseIjE4sizeEv(ptr noundef nonnull align 8 dereferenceable(528) %0) #18
  %31 = add i64 %30, 1
  tail call void @_ZN4llvm15SmallVectorBaseIjE8set_sizeEm(ptr noundef nonnull align 8 dereferenceable(528) %0, i64 noundef %31) #18
  %32 = tail call noundef i64 @_ZNK4llvm15SmallVectorBaseIjE4sizeEv(ptr noundef nonnull align 8 dereferenceable(528) %0) #18
  %33 = add i64 %32, 1
  %34 = tail call noundef i64 @_ZNK4llvm15SmallVectorBaseIjE8capacityEv(ptr noundef nonnull align 8 dereferenceable(528) %0) #18
  %.not.i.i.i.i19 = icmp ugt i64 %33, %34
  br i1 %.not.i.i.i.i19, label %35, label %_ZN4llvm13BitCodeAbbrev3AddERKNS_15BitCodeAbbrevOpE.exit21

35:                                               ; preds = %_ZN4llvm13BitCodeAbbrev3AddERKNS_15BitCodeAbbrevOpE.exit15
  %36 = getelementptr inbounds nuw i8, ptr %0, i64 16
  tail call void @_ZN4llvm15SmallVectorBaseIjE8grow_podEPvmm(ptr noundef nonnull align 8 dereferenceable(528) %0, ptr noundef nonnull %36, i64 noundef %33, i64 noundef 16) #18
  br label %_ZN4llvm13BitCodeAbbrev3AddERKNS_15BitCodeAbbrevOpE.exit21

_ZN4llvm13BitCodeAbbrev3AddERKNS_15BitCodeAbbrevOpE.exit21: ; preds = %_ZN4llvm13BitCodeAbbrev3AddERKNS_15BitCodeAbbrevOpE.exit15, %35
  %37 = load ptr, ptr %0, align 8
  %38 = tail call noundef i64 @_ZNK4llvm15SmallVectorBaseIjE4sizeEv(ptr noundef nonnull align 8 dereferenceable(528) %0) #18
  %39 = getelementptr inbounds %"class.llvm::BitCodeAbbrevOp", ptr %37, i64 %38
  store i64 32, ptr %39, align 1
  %.sroa.2.0..sroa_idx.i.i20 = getelementptr inbounds nuw i8, ptr %39, i64 8
  store i64 2, ptr %.sroa.2.0..sroa_idx.i.i20, align 1
  %40 = tail call noundef i64 @_ZNK4llvm15SmallVectorBaseIjE4sizeEv(ptr noundef nonnull align 8 dereferenceable(528) %0) #18
  %41 = add i64 %40, 1
  tail call void @_ZN4llvm15SmallVectorBaseIjE8set_sizeEm(ptr noundef nonnull align 8 dereferenceable(528) %0, i64 noundef %41) #18
  ret void
}